#include <math.h>
#include <stdio.h>
#include <stdlib.h>
#include <string.h>


int main(){

    int sz[100];

    int i,e,n,k,dt;

    scanf("%d",&n);

    for(i=0;i<n;i++){

        scanf("%d",&(sz[i]));

    }

    for(e=1;e<=n;e++){

        for(k=0;k<n-e;k++){

            dt=sz[k];

            sz[k]=sz[k+1];

            sz[k+1]=dt;

        }

     }

     for(i=0;i<n;i++){

         if(i<n-1){

         printf("%d ",sz[i]);

         }else{

         printf("%d",sz[i]);

         }

      }

     return 0;

}